target datalayout = "e-m:e-p270:32:32-p271:32:32-p272:64:64-i64:64-i128:128-f80:128-n8:16:32:64-S128"
target triple = "x86_64-pc-linux-gnu"

%struct.PGNoticeHooks = type { ptr, ptr, ptr, ptr }
%struct.PGEvent = type { ptr, ptr, ptr, ptr, i8 }
%struct.pg_result = type { i32, i32, ptr, ptr, i32, i32, ptr, i32, [64 x i8], i32, %struct.PGNoticeHooks, ptr, i32, i32, ptr, ptr, ptr, [1 x i8], ptr, i32, i32, i64 }

; Function Attrs: nounwind uwtable
define i32 @PQresultSetInstanceData(ptr noundef %0, ptr noundef %1, ptr noundef %2) #0 {
  %4 = alloca i32, align 4
  %5 = alloca ptr, align 8
  %6 = alloca ptr, align 8
  %7 = alloca ptr, align 8
  %8 = alloca i32, align 4
  %9 = alloca i32, align 4
  store ptr %0, ptr %5, align 8
  store ptr %1, ptr %6, align 8
  store ptr %2, ptr %7, align 8
  call void @llvm.lifetime.start.p0(i64 4, ptr %8) #5
  %10 = load ptr, ptr %5, align 8
  %11 = icmp ne ptr %10, null
  br i1 %11, label %12, label %15

12:                                               ; preds = %3
  %13 = load ptr, ptr %6, align 8
  %14 = icmp ne ptr %13, null
  br i1 %14, label %16, label %15

15:                                               ; preds = %12, %3
  store i32 0, ptr %4, align 4
  store i32 1, ptr %9, align 4
  br label %48

16:                                               ; preds = %12
  store i32 0, ptr %8, align 4
  br label %17

17:                                               ; preds = %44, %16
  %18 = load i32, ptr %8, align 4
  %19 = load ptr, ptr %5, align 8
  %20 = getelementptr inbounds nuw %struct.pg_result, ptr %19, i32 0, i32 12
  %21 = load i32, ptr %20, align 8
  %22 = icmp slt i32 %18, %21
  br i1 %22, label %23, label %47

23:                                               ; preds = %17
  %24 = load ptr, ptr %5, align 8
  %25 = getelementptr inbounds nuw %struct.pg_result, ptr %24, i32 0, i32 11
  %26 = load ptr, ptr %25, align 8
  %27 = load i32, ptr %8, align 4
  %28 = sext i32 %27 to i64
  %29 = getelementptr inbounds %struct.PGEvent, ptr %26, i64 %28
  %30 = getelementptr inbounds nuw %struct.PGEvent, ptr %29, i32 0, i32 0
  %31 = load ptr, ptr %30, align 8
  %32 = load ptr, ptr %6, align 8
  %33 = icmp eq ptr %31, %32
  br i1 %33, label %34, label %43

34:                                               ; preds = %23
  %35 = load ptr, ptr %7, align 8
  %36 = load ptr, ptr %5, align 8
  %37 = getelementptr inbounds nuw %struct.pg_result, ptr %36, i32 0, i32 11
  %38 = load ptr, ptr %37, align 8
  %39 = load i32, ptr %8, align 4
  %40 = sext i32 %39 to i64
  %41 = getelementptr inbounds %struct.PGEvent, ptr %38, i64 %40
  %42 = getelementptr inbounds nuw %struct.PGEvent, ptr %41, i32 0, i32 3
  store ptr %35, ptr %42, align 8
  store i32 1, ptr %4, align 4
  store i32 1, ptr %9, align 4
  br label %48

43:                                               ; preds = %23
  br label %44

44:                                               ; preds = %43
  %45 = load i32, ptr %8, align 4
  %46 = add i32 %45, 1
  store i32 %46, ptr %8, align 4
  br label %17, !llvm.loop !7

47:                                               ; preds = %17
  store i32 0, ptr %4, align 4
  store i32 1, ptr %9, align 4
  br label %48

48:                                               ; preds = %47, %34, %15
  call void @llvm.lifetime.end.p0(i64 4, ptr %8) #5
  %49 = load i32, ptr %4, align 4
  ret i32 %49
}